; Function Attrs: nofree norecurse nosync nounwind memory(argmem: readwrite) uwtable
define internal void @put_vp8_epel4_v6_c(ptr noundef writeonly captures(none) %0, i64 noundef %1, ptr noundef readonly captures(none) %2, i64 noundef %3, i32 noundef %4, i32 %5, i32 noundef %6) #1 {
  %8 = icmp sgt i32 %4, 0
  br i1 %8, label %.preheader.lr.ph, label %._crit_edge

.preheader.lr.ph:                                 ; preds = %7
  %9 = add nsw i32 %6, -1
  %10 = sext i32 %9 to i64
  %11 = getelementptr inbounds [7 x [6 x i8]], ptr @subpel_filters, i64 0, i64 %10
  %12 = getelementptr inbounds nuw i8, ptr %11, i64 2
  %13 = load i8, ptr %12, align 2, !tbaa !10
  %14 = zext i8 %13 to i32
  %15 = getelementptr inbounds nuw i8, ptr %11, i64 1
  %16 = load i8, ptr %15, align 1, !tbaa !10
  %17 = zext i8 %16 to i32
  %18 = load i8, ptr %11, align 2, !tbaa !10
  %19 = zext i8 %18 to i32
  %20 = shl nsw i64 %3, 1
  %21 = getelementptr inbounds nuw i8, ptr %11, i64 3
  %22 = load i8, ptr %21, align 1, !tbaa !10
  %23 = zext i8 %22 to i32
  %24 = getelementptr inbounds nuw i8, ptr %11, i64 4
  %25 = load i8, ptr %24, align 2, !tbaa !10
  %26 = zext i8 %25 to i32
  %27 = getelementptr inbounds nuw i8, ptr %11, i64 5
  %28 = load i8, ptr %27, align 1, !tbaa !10
  %29 = zext i8 %28 to i32
  %30 = mul nsw i64 %3, 3
  br label %.preheader

.preheader:                                       ; preds = %.preheader.lr.ph, %72
  %.044 = phi i32 [ 0, %.preheader.lr.ph ], [ %74, %72 ]
  %.03743 = phi ptr [ %0, %.preheader.lr.ph ], [ %73, %72 ]
  %.03842 = phi ptr [ %2, %.preheader.lr.ph ], [ %31, %72 ]
  %31 = getelementptr i8, ptr %.03842, i64 %3
  %32 = getelementptr i8, ptr %.03842, i64 %20
  %33 = getelementptr i8, ptr %.03842, i64 %30
  br label %34

34:                                               ; preds = %.preheader, %34
  %indvars.iv = phi i64 [ 0, %.preheader ], [ %indvars.iv.next, %34 ]
  %35 = getelementptr inbounds nuw i8, ptr %.03842, i64 %indvars.iv
  %36 = load i8, ptr %35, align 1, !tbaa !10
  %37 = zext i8 %36 to i32
  %38 = mul nuw nsw i32 %37, %14
  %39 = sub nsw i64 %indvars.iv, %3
  %40 = getelementptr inbounds i8, ptr %.03842, i64 %39
  %41 = load i8, ptr %40, align 1, !tbaa !10
  %42 = zext i8 %41 to i32
  %43 = mul nuw nsw i32 %17, %42
  %44 = sub nsw i64 %indvars.iv, %20
  %45 = getelementptr inbounds i8, ptr %.03842, i64 %44
  %46 = load i8, ptr %45, align 1, !tbaa !10
  %47 = zext i8 %46 to i32
  %48 = mul nuw nsw i32 %47, %19
  %49 = getelementptr i8, ptr %31, i64 %indvars.iv
  %50 = load i8, ptr %49, align 1, !tbaa !10
  %51 = zext i8 %50 to i32
  %52 = mul nuw nsw i32 %51, %23
  %53 = getelementptr i8, ptr %32, i64 %indvars.iv
  %54 = load i8, ptr %53, align 1, !tbaa !10
  %55 = zext i8 %54 to i32
  %56 = mul nuw nsw i32 %26, %55
  %57 = getelementptr i8, ptr %33, i64 %indvars.iv
  %58 = load i8, ptr %57, align 1, !tbaa !10
  %59 = zext i8 %58 to i32
  %60 = mul nuw nsw i32 %59, %29
  %61 = add nuw nsw i32 %56, %43
  %62 = add nuw nsw i32 %38, 64
  %63 = add nuw nsw i32 %62, %48
  %64 = add nuw nsw i32 %63, %52
  %65 = add nuw nsw i32 %64, %60
  %66 = sub nsw i32 %65, %61
  %67 = ashr i32 %66, 7
  %68 = sext i32 %67 to i64
  %69 = getelementptr inbounds i8, ptr getelementptr inbounds nuw (i8, ptr @ff_crop_tab, i64 1024), i64 %68
  %70 = load i8, ptr %69, align 1, !tbaa !10
  %71 = getelementptr inbounds nuw i8, ptr %.03743, i64 %indvars.iv
  store i8 %70, ptr %71, align 1, !tbaa !10
  %indvars.iv.next = add nuw nsw i64 %indvars.iv, 1
  %exitcond.not = icmp eq i64 %indvars.iv.next, 4
  br i1 %exitcond.not, label %72, label %34, !llvm.loop !75

72:                                               ; preds = %34
  %73 = getelementptr inbounds i8, ptr %.03743, i64 %1
  %74 = add nuw nsw i32 %.044, 1
  %exitcond46.not = icmp eq i32 %74, %4
  br i1 %exitcond46.not, label %._crit_edge, label %.preheader, !llvm.loop !76

._crit_edge:                                      ; preds = %72, %7
  ret void
}